target datalayout = "e-m:e-p270:32:32-p271:32:32-p272:64:64-i64:64-i128:128-f80:128-n8:16:32:64-S128"
target triple = "x86_64-unknown-linux-gnu"

%"class.std::__cxx11::basic_ostringstream" = type { %"class.std::basic_ostream.base", %"class.std::__cxx11::basic_stringbuf", %"class.std::basic_ios" }
%"class.std::basic_ostream.base" = type { ptr }
%"class.std::__cxx11::basic_stringbuf" = type { %"class.std::basic_streambuf", i32, %"class.std::__cxx11::basic_string" }
%"class.std::basic_streambuf" = type { ptr, ptr, ptr, ptr, ptr, ptr, ptr, %"class.std::locale" }
%"class.std::locale" = type { ptr }
%"class.std::__cxx11::basic_string" = type { %"struct.std::__cxx11::basic_string<char>::_Alloc_hider", i64, %union.anon }
%"struct.std::__cxx11::basic_string<char>::_Alloc_hider" = type { ptr }
%union.anon = type { i64, [8 x i8] }
%"class.std::basic_ios" = type { %"class.std::ios_base", ptr, i8, i8, ptr, ptr, ptr, ptr }
%"class.std::ios_base" = type { ptr, i64, i64, i32, i32, i32, ptr, %"struct.std::ios_base::_Words", [8 x %"struct.std::ios_base::_Words"], i32, ptr, %"class.std::locale" }
%"struct.std::ios_base::_Words" = type { ptr, i64 }
%"class.std::allocator" = type { i8 }

; Function Attrs: mustprogress uwtable
define linkonce_odr void @_ZStplIcSt11char_traitsIcESaIcEENSt7__cxx1112basic_stringIT_T0_T1_EEOS8_S5_(ptr noalias sret(%"class.std::__cxx11::basic_string") align 8 %agg.result, ptr noundef nonnull align 8 dereferenceable(32) %__lhs, i8 noundef signext %__rhs) #5 comdat {
entry:
  %result.ptr = alloca ptr, align 8
  %__lhs.addr = alloca ptr, align 8
  %__rhs.addr = alloca i8, align 1
  store ptr %agg.result, ptr %result.ptr, align 8
  store ptr %__lhs, ptr %__lhs.addr, align 8
  store i8 %__rhs, ptr %__rhs.addr, align 1
  %0 = load ptr, ptr %__lhs.addr, align 8
  %1 = load i8, ptr %__rhs.addr, align 1
  %call = call noundef nonnull align 8 dereferenceable(32) ptr @_ZNSt7__cxx1112basic_stringIcSt11char_traitsIcESaIcEE6appendEmc(ptr noundef nonnull align 8 dereferenceable(32) %0, i64 noundef 1, i8 noundef signext %1)
  call void @_ZNSt7__cxx1112basic_stringIcSt11char_traitsIcESaIcEEC1EOS4_(ptr noundef nonnull align 8 dereferenceable(32) %agg.result, ptr noundef nonnull align 8 dereferenceable(32) %call) #3
  ret void
}

; Function Attrs: mustprogress uwtable
define linkonce_odr void @_ZStplIcSt11char_traitsIcESaIcEENSt7__cxx1112basic_stringIT_T0_T1_EES5_OS8_(ptr noalias sret(%"class.std::__cxx11::basic_string") align 8 %agg.result, i8 noundef signext %__lhs, ptr noundef nonnull align 8 dereferenceable(32) %__rhs) #5 comdat {
entry:
  %result.ptr = alloca ptr, align 8
  %__lhs.addr = alloca i8, align 1
  %__rhs.addr = alloca ptr, align 8
  store ptr %agg.result, ptr %result.ptr, align 8
  store i8 %__lhs, ptr %__lhs.addr, align 1
  store ptr %__rhs, ptr %__rhs.addr, align 8
  %0 = load ptr, ptr %__rhs.addr, align 8
  %1 = load i8, ptr %__lhs.addr, align 1
  %call = call noundef nonnull align 8 dereferenceable(32) ptr @_ZNSt7__cxx1112basic_stringIcSt11char_traitsIcESaIcEE6insertEmmc(ptr noundef nonnull align 8 dereferenceable(32) %0, i64 noundef 0, i64 noundef 1, i8 noundef signext %1)
  call void @_ZNSt7__cxx1112basic_stringIcSt11char_traitsIcESaIcEEC1EOS4_(ptr noundef nonnull align 8 dereferenceable(32) %agg.result, ptr noundef nonnull align 8 dereferenceable(32) %call) #3
  ret void
}

; Function Attrs: mustprogress nounwind uwtable
define linkonce_odr hidden noundef i64 @_ZNSt8ios_base9precisionEl(ptr noundef nonnull align 8 dereferenceable(216) %this, i64 noundef %__prec) #4 comdat align 2 {
entry:
  %this.addr = alloca ptr, align 8
  %__prec.addr = alloca i64, align 8
  %__old = alloca i64, align 8
  store ptr %this, ptr %this.addr, align 8
  store i64 %__prec, ptr %__prec.addr, align 8
  %this1 = load ptr, ptr %this.addr, align 8
  %_M_precision = getelementptr inbounds %"class.std::ios_base", ptr %this1, i32 0, i32 1
  %0 = load i64, ptr %_M_precision, align 8
  store i64 %0, ptr %__old, align 8
  %1 = load i64, ptr %__prec.addr, align 8
  %_M_precision2 = getelementptr inbounds %"class.std::ios_base", ptr %this1, i32 0, i32 1
  store i64 %1, ptr %_M_precision2, align 8
  %2 = load i64, ptr %__old, align 8
  ret i64 %2
}

; Function Attrs: mustprogress uwtable
define internal void @_ZN19OpenColorIO_v2_4dev12_GLOBAL__N_18WriteTagERNS_12XmlFormatterEPKcd(ptr noundef nonnull align 8 dereferenceable(16) %fmt, ptr noundef %tag, double noundef %value) #5 personality ptr @__gxx_personality_v0 {
entry:
  %fmt.addr = alloca ptr, align 8
  %tag.addr = alloca ptr, align 8
  %value.addr = alloca double, align 8
  %o = alloca %"class.std::__cxx11::basic_ostringstream", align 8
  %exn.slot = alloca ptr, align 8
  %ehselector.slot = alloca i32, align 4
  %ref.tmp = alloca %"class.std::__cxx11::basic_string", align 8
  %ref.tmp2 = alloca %"class.std::allocator", align 1
  %ref.tmp5 = alloca %"class.std::__cxx11::basic_string", align 8
  %ref.tmp6 = alloca %"class.std::__cxx11::basic_string", align 8
  %ref.tmp7 = alloca %"class.std::__cxx11::basic_string", align 8
  store ptr %fmt, ptr %fmt.addr, align 8
  store ptr %tag, ptr %tag.addr, align 8
  store double %value, ptr %value.addr, align 8
  call void @_ZNSt7__cxx1119basic_ostringstreamIcSt11char_traitsIcESaIcEEC1Ev(ptr noundef nonnull align 8 dereferenceable(112) %o)
  %vtable = load ptr, ptr %o, align 8
  %vbase.offset.ptr = getelementptr i8, ptr %vtable, i64 -24
  %vbase.offset = load i64, ptr %vbase.offset.ptr, align 8
  %add.ptr = getelementptr inbounds i8, ptr %o, i64 %vbase.offset
  %call = call noundef i64 @_ZNSt8ios_base9precisionEl(ptr noundef nonnull align 8 dereferenceable(216) %add.ptr, i64 noundef 15)
  %0 = load double, ptr %value.addr, align 8
  %call1 = invoke noundef nonnull align 8 dereferenceable(8) ptr @_ZNSolsEd(ptr noundef nonnull align 8 dereferenceable(8) %o, double noundef %0)
          to label %invoke.cont unwind label %lpad

invoke.cont:                                      ; preds = %entry
  %1 = load ptr, ptr %fmt.addr, align 8
  %2 = load ptr, ptr %tag.addr, align 8
  call void @_ZNSaIcEC1Ev(ptr noundef nonnull align 1 dereferenceable(1) %ref.tmp2) #3
  invoke void @_ZNSt7__cxx1112basic_stringIcSt11char_traitsIcESaIcEEC1EPKcRKS3_(ptr noundef nonnull align 8 dereferenceable(32) %ref.tmp, ptr noundef %2, ptr noundef nonnull align 1 dereferenceable(1) %ref.tmp2)
          to label %invoke.cont4 unwind label %lpad3

invoke.cont4:                                     ; preds = %invoke.cont
  invoke void @_ZNKSt7__cxx1119basic_ostringstreamIcSt11char_traitsIcESaIcEE3strEv(ptr sret(%"class.std::__cxx11::basic_string") align 8 %ref.tmp7, ptr noundef nonnull align 8 dereferenceable(112) %o)
          to label %invoke.cont9 unwind label %lpad8

invoke.cont9:                                     ; preds = %invoke.cont4
  invoke void @_ZStplIcSt11char_traitsIcESaIcEENSt7__cxx1112basic_stringIT_T0_T1_EES5_OS8_(ptr sret(%"class.std::__cxx11::basic_string") align 8 %ref.tmp6, i8 noundef signext 32, ptr noundef nonnull align 8 dereferenceable(32) %ref.tmp7)
          to label %invoke.cont11 unwind label %lpad10

invoke.cont11:                                    ; preds = %invoke.cont9
  invoke void @_ZStplIcSt11char_traitsIcESaIcEENSt7__cxx1112basic_stringIT_T0_T1_EEOS8_S5_(ptr sret(%"class.std::__cxx11::basic_string") align 8 %ref.tmp5, ptr noundef nonnull align 8 dereferenceable(32) %ref.tmp6, i8 noundef signext 32)
          to label %invoke.cont13 unwind label %lpad12

invoke.cont13:                                    ; preds = %invoke.cont11
  invoke void @_ZN19OpenColorIO_v2_4dev12XmlFormatter15writeContentTagERKNSt7__cxx1112basic_stringIcSt11char_traitsIcESaIcEEES8_(ptr noundef nonnull align 8 dereferenceable(16) %1, ptr noundef nonnull align 8 dereferenceable(32) %ref.tmp, ptr noundef nonnull align 8 dereferenceable(32) %ref.tmp5)
          to label %invoke.cont15 unwind label %lpad14

invoke.cont15:                                    ; preds = %invoke.cont13
  call void @_ZNSt7__cxx1112basic_stringIcSt11char_traitsIcESaIcEED1Ev(ptr noundef nonnull align 8 dereferenceable(32) %ref.tmp5) #3
  call void @_ZNSt7__cxx1112basic_stringIcSt11char_traitsIcESaIcEED1Ev(ptr noundef nonnull align 8 dereferenceable(32) %ref.tmp6) #3
  call void @_ZNSt7__cxx1112basic_stringIcSt11char_traitsIcESaIcEED1Ev(ptr noundef nonnull align 8 dereferenceable(32) %ref.tmp7) #3
  call void @_ZNSt7__cxx1112basic_stringIcSt11char_traitsIcESaIcEED1Ev(ptr noundef nonnull align 8 dereferenceable(32) %ref.tmp) #3
  call void @_ZNSaIcED1Ev(ptr noundef nonnull align 1 dereferenceable(1) %ref.tmp2) #3
  call void @_ZNSt7__cxx1119basic_ostringstreamIcSt11char_traitsIcESaIcEED1Ev(ptr noundef nonnull align 8 dereferenceable(112) %o) #3
  ret void

lpad:                                             ; preds = %entry
  %3 = landingpad { ptr, i32 }
          cleanup
  %4 = extractvalue { ptr, i32 } %3, 0
  store ptr %4, ptr %exn.slot, align 8
  %5 = extractvalue { ptr, i32 } %3, 1
  store i32 %5, ptr %ehselector.slot, align 4
  br label %ehcleanup19

lpad3:                                            ; preds = %invoke.cont
  %6 = landingpad { ptr, i32 }
          cleanup
  %7 = extractvalue { ptr, i32 } %6, 0
  store ptr %7, ptr %exn.slot, align 8
  %8 = extractvalue { ptr, i32 } %6, 1
  store i32 %8, ptr %ehselector.slot, align 4
  br label %ehcleanup18

lpad8:                                            ; preds = %invoke.cont4
  %9 = landingpad { ptr, i32 }
          cleanup
  %10 = extractvalue { ptr, i32 } %9, 0
  store ptr %10, ptr %exn.slot, align 8
  %11 = extractvalue { ptr, i32 } %9, 1
  store i32 %11, ptr %ehselector.slot, align 4
  br label %ehcleanup17

lpad10:                                           ; preds = %invoke.cont9
  %12 = landingpad { ptr, i32 }
          cleanup
  %13 = extractvalue { ptr, i32 } %12, 0
  store ptr %13, ptr %exn.slot, align 8
  %14 = extractvalue { ptr, i32 } %12, 1
  store i32 %14, ptr %ehselector.slot, align 4
  br label %ehcleanup16

lpad12:                                           ; preds = %invoke.cont11
  %15 = landingpad { ptr, i32 }
          cleanup
  %16 = extractvalue { ptr, i32 } %15, 0
  store ptr %16, ptr %exn.slot, align 8
  %17 = extractvalue { ptr, i32 } %15, 1
  store i32 %17, ptr %ehselector.slot, align 4
  br label %ehcleanup

lpad14:                                           ; preds = %invoke.cont13
  %18 = landingpad { ptr, i32 }
          cleanup
  %19 = extractvalue { ptr, i32 } %18, 0
  store ptr %19, ptr %exn.slot, align 8
  %20 = extractvalue { ptr, i32 } %18, 1
  store i32 %20, ptr %ehselector.slot, align 4
  call void @_ZNSt7__cxx1112basic_stringIcSt11char_traitsIcESaIcEED1Ev(ptr noundef nonnull align 8 dereferenceable(32) %ref.tmp5) #3
  br label %ehcleanup

ehcleanup:                                        ; preds = %lpad14, %lpad12
  call void @_ZNSt7__cxx1112basic_stringIcSt11char_traitsIcESaIcEED1Ev(ptr noundef nonnull align 8 dereferenceable(32) %ref.tmp6) #3
  br label %ehcleanup16

ehcleanup16:                                      ; preds = %ehcleanup, %lpad10
  call void @_ZNSt7__cxx1112basic_stringIcSt11char_traitsIcESaIcEED1Ev(ptr noundef nonnull align 8 dereferenceable(32) %ref.tmp7) #3
  br label %ehcleanup17

ehcleanup17:                                      ; preds = %ehcleanup16, %lpad8
  call void @_ZNSt7__cxx1112basic_stringIcSt11char_traitsIcESaIcEED1Ev(ptr noundef nonnull align 8 dereferenceable(32) %ref.tmp) #3
  br label %ehcleanup18

ehcleanup18:                                      ; preds = %ehcleanup17, %lpad3
  call void @_ZNSaIcED1Ev(ptr noundef nonnull align 1 dereferenceable(1) %ref.tmp2) #3
  br label %ehcleanup19

ehcleanup19:                                      ; preds = %ehcleanup18, %lpad
  call void @_ZNSt7__cxx1119basic_ostringstreamIcSt11char_traitsIcESaIcEED1Ev(ptr noundef nonnull align 8 dereferenceable(112) %o) #3
  br label %eh.resume

eh.resume:                                        ; preds = %ehcleanup19
  %exn = load ptr, ptr %exn.slot, align 8
  %sel = load i32, ptr %ehselector.slot, align 4
  %lpad.val = insertvalue { ptr, i32 } poison, ptr %exn, 0
  %lpad.val20 = insertvalue { ptr, i32 } %lpad.val, i32 %sel, 1
  resume { ptr, i32 } %lpad.val20
}